target datalayout = "e-m:e-p270:32:32-p271:32:32-p272:64:64-i64:64-i128:128-f80:128-n8:16:32:64-S128"
target triple = "x86_64-pc-linux-gnu"

%struct.key2any_ctx_st = type { ptr, i32, i32, ptr, %struct.ossl_passphrase_data_st }
%struct.ossl_passphrase_data_st = type { i32, %union.anon, i8, ptr, i64 }
%union.anon = type { %struct.anon }
%struct.anon = type { ptr, i64 }

; Function Attrs: nounwind uwtable
define internal i32 @key_to_spki_der_pub_bio(ptr noundef %0, ptr noundef %1, i32 noundef %2, ptr noundef %3, ptr noundef %4, ptr noundef %5, ptr noundef %6) #0 {
  %8 = alloca i32, align 4
  %9 = alloca ptr, align 8
  %10 = alloca ptr, align 8
  %11 = alloca i32, align 4
  %12 = alloca ptr, align 8
  %13 = alloca ptr, align 8
  %14 = alloca ptr, align 8
  %15 = alloca ptr, align 8
  %16 = alloca i32, align 4
  %17 = alloca ptr, align 8
  %18 = alloca i32, align 4
  %19 = alloca ptr, align 8
  %20 = alloca i32, align 4
  store ptr %0, ptr %9, align 8, !tbaa !31
  store ptr %1, ptr %10, align 8, !tbaa !3
  store i32 %2, ptr %11, align 4, !tbaa !25
  store ptr %3, ptr %12, align 8, !tbaa !23
  store ptr %4, ptr %13, align 8, !tbaa !3
  store ptr %5, ptr %14, align 8, !tbaa !3
  store ptr %6, ptr %15, align 8, !tbaa !7
  call void @llvm.lifetime.start.p0(i64 4, ptr %16) #4
  store i32 0, ptr %16, align 4, !tbaa !25
  call void @llvm.lifetime.start.p0(i64 8, ptr %17) #4
  store ptr null, ptr %17, align 8, !tbaa !3
  call void @llvm.lifetime.start.p0(i64 4, ptr %18) #4
  store i32 -1, ptr %18, align 4, !tbaa !25
  call void @llvm.lifetime.start.p0(i64 8, ptr %19) #4
  store ptr null, ptr %19, align 8, !tbaa !54
  %21 = load ptr, ptr %13, align 8, !tbaa !3
  %22 = icmp ne ptr %21, null
  br i1 %22, label %23, label %33

23:                                               ; preds = %7
  %24 = load ptr, ptr %13, align 8, !tbaa !3
  %25 = load ptr, ptr %10, align 8, !tbaa !3
  %26 = load i32, ptr %11, align 4, !tbaa !25
  %27 = load ptr, ptr %15, align 8, !tbaa !7
  %28 = getelementptr inbounds nuw %struct.key2any_ctx_st, ptr %27, i32 0, i32 1
  %29 = load i32, ptr %28, align 8, !tbaa !17
  %30 = call i32 %24(ptr noundef %25, i32 noundef %26, i32 noundef %29, ptr noundef %17, ptr noundef %18)
  %31 = icmp ne i32 %30, 0
  br i1 %31, label %33, label %32

32:                                               ; preds = %23
  store i32 0, ptr %8, align 4
  store i32 1, ptr %20, align 4
  br label %50

33:                                               ; preds = %23, %7
  %34 = load ptr, ptr %10, align 8, !tbaa !3
  %35 = load i32, ptr %11, align 4, !tbaa !25
  %36 = load ptr, ptr %17, align 8, !tbaa !3
  %37 = load i32, ptr %18, align 4, !tbaa !25
  %38 = load ptr, ptr %14, align 8, !tbaa !3
  %39 = load ptr, ptr %15, align 8, !tbaa !7
  %40 = call ptr @key_to_pubkey(ptr noundef %34, i32 noundef %35, ptr noundef %36, i32 noundef %37, ptr noundef %38, ptr noundef %39)
  store ptr %40, ptr %19, align 8, !tbaa !54
  %41 = load ptr, ptr %19, align 8, !tbaa !54
  %42 = icmp ne ptr %41, null
  br i1 %42, label %43, label %47

43:                                               ; preds = %33
  %44 = load ptr, ptr %9, align 8, !tbaa !31
  %45 = load ptr, ptr %19, align 8, !tbaa !54
  %46 = call i32 @i2d_X509_PUBKEY_bio(ptr noundef %44, ptr noundef %45)
  store i32 %46, ptr %16, align 4, !tbaa !25
  br label %47

47:                                               ; preds = %43, %33
  %48 = load ptr, ptr %19, align 8, !tbaa !54
  call void @X509_PUBKEY_free(ptr noundef %48)
  %49 = load i32, ptr %16, align 4, !tbaa !25
  store i32 %49, ptr %8, align 4
  store i32 1, ptr %20, align 4
  br label %50

50:                                               ; preds = %47, %32
  call void @llvm.lifetime.end.p0(i64 8, ptr %19) #4
  call void @llvm.lifetime.end.p0(i64 4, ptr %18) #4
  call void @llvm.lifetime.end.p0(i64 8, ptr %17) #4
  call void @llvm.lifetime.end.p0(i64 4, ptr %16) #4
  %51 = load i32, ptr %8, align 4
  ret i32 %51
}