; Function Attrs: nounwind uwtable
define internal i32 @key_to_spki_der_pub_bio(ptr noundef %0, ptr noundef %1, i32 noundef %2, ptr readnone captures(none) %3, ptr noundef readonly captures(address_is_null) %4, ptr noundef readonly captures(none) %5, ptr noundef %6) #0 {
  %8 = alloca ptr, align 8
  %9 = alloca i32, align 4
  call void @llvm.lifetime.start.p0(i64 8, ptr nonnull %8) #5
  store ptr null, ptr %8, align 8, !tbaa !21
  call void @llvm.lifetime.start.p0(i64 4, ptr nonnull %9) #5
  store i32 -1, ptr %9, align 4, !tbaa !20
  %.not = icmp eq ptr %4, null
  br i1 %.not, label %14, label %10

10:                                               ; preds = %7
  %11 = getelementptr inbounds nuw i8, ptr %6, i64 8
  %12 = load i32, ptr %11, align 8, !tbaa !14
  %13 = call i32 %4(ptr noundef %1, i32 noundef %2, i32 noundef %12, ptr noundef nonnull %8, ptr noundef nonnull %9) #5
  %.not17 = icmp eq i32 %13, 0
  br i1 %.not17, label %21, label %._crit_edge

._crit_edge:                                      ; preds = %10
  %.pre = load ptr, ptr %8, align 8, !tbaa !21
  %.pre19 = load i32, ptr %9, align 4, !tbaa !20
  br label %14

14:                                               ; preds = %._crit_edge, %7
  %15 = phi i32 [ %.pre19, %._crit_edge ], [ -1, %7 ]
  %16 = phi ptr [ %.pre, %._crit_edge ], [ null, %7 ]
  %17 = call fastcc ptr @key_to_pubkey(ptr noundef %1, i32 noundef %2, ptr noundef %16, i32 noundef %15, ptr noundef %5, ptr noundef %6)
  %.not18 = icmp eq ptr %17, null
  br i1 %.not18, label %20, label %18

18:                                               ; preds = %14
  %19 = call i32 @i2d_X509_PUBKEY_bio(ptr noundef %0, ptr noundef nonnull %17) #5
  br label %20

20:                                               ; preds = %18, %14
  %.0 = phi i32 [ %19, %18 ], [ 0, %14 ]
  call void @X509_PUBKEY_free(ptr noundef %17) #5
  br label %21

21:                                               ; preds = %10, %20
  %.014 = phi i32 [ %.0, %20 ], [ 0, %10 ]
  call void @llvm.lifetime.end.p0(i64 4, ptr nonnull %9) #5
  call void @llvm.lifetime.end.p0(i64 8, ptr nonnull %8) #5
  ret i32 %.014
}